target datalayout = "e-m:e-p270:32:32-p271:32:32-p272:64:64-i64:64-i128:128-f80:128-n8:16:32:64-S128"
target triple = "x86_64-pc-linux-gnu"

@.str.14 = private unnamed_addr constant [36 x i8] c"../openssl/test/verify_extra_test.c\00", align 1
@sroot_cert = internal global ptr null, align 8
@ca_cert = internal global ptr null, align 8
@ee_cert = internal global ptr null, align 8
@.str.44 = private unnamed_addr constant [9 x i8] c"expected\00", align 1
@.str.47 = private unnamed_addr constant [22 x i8] c"X509_verify_cert(ctx)\00", align 1
@.str.54 = private unnamed_addr constant [7 x i8] c"eecert\00", align 1
@.str.55 = private unnamed_addr constant [9 x i8] c"untrcert\00", align 1
@.str.56 = private unnamed_addr constant [7 x i8] c"trcert\00", align 1
@.str.57 = private unnamed_addr constant [8 x i8] c"trusted\00", align 1
@.str.58 = private unnamed_addr constant [10 x i8] c"untrusted\00", align 1
@.str.59 = private unnamed_addr constant [4 x i8] c"ctx\00", align 1
@.str.60 = private unnamed_addr constant [30 x i8] c"sk_X509_push(trusted, trcert)\00", align 1
@.str.61 = private unnamed_addr constant [34 x i8] c"sk_X509_push(untrusted, untrcert)\00", align 1
@.str.62 = private unnamed_addr constant [50 x i8] c"X509_STORE_CTX_init(ctx, NULL, eecert, untrusted)\00", align 1
@.str.63 = private unnamed_addr constant [41 x i8] c"X509_STORE_CTX_set_purpose(ctx, purpose)\00", align 1

; Function Attrs: inlinehint nounwind uwtable
define internal ptr @ossl_check_X509_type(ptr noundef %0) #3 {
  %2 = alloca ptr, align 8
  store ptr %0, ptr %2, align 8, !tbaa !11
  %3 = load ptr, ptr %2, align 8, !tbaa !11
  ret ptr %3
}

; Function Attrs: inlinehint nounwind uwtable
define internal ptr @ossl_check_X509_sk_type(ptr noundef %0) #3 {
  %2 = alloca ptr, align 8
  store ptr %0, ptr %2, align 8, !tbaa !13
  %3 = load ptr, ptr %2, align 8, !tbaa !13
  ret ptr %3
}

; Function Attrs: nounwind uwtable
define internal i32 @do_test_purpose(i32 noundef %0, i32 noundef %1) #0 {
  %3 = alloca i32, align 4
  %4 = alloca i32, align 4
  %5 = alloca ptr, align 8
  %6 = alloca ptr, align 8
  %7 = alloca ptr, align 8
  %8 = alloca ptr, align 8
  %9 = alloca ptr, align 8
  %10 = alloca ptr, align 8
  %11 = alloca i32, align 4
  store i32 %0, ptr %3, align 4, !tbaa !9
  store i32 %1, ptr %4, align 4, !tbaa !9
  call void @llvm.lifetime.start.p0(i64 8, ptr %5) #5
  %12 = load ptr, ptr @ee_cert, align 8, !tbaa !4
  %13 = call ptr @load_cert_pem(ptr noundef %12, ptr noundef null)
  store ptr %13, ptr %5, align 8, !tbaa !11
  call void @llvm.lifetime.start.p0(i64 8, ptr %6) #5
  %14 = load ptr, ptr @ca_cert, align 8, !tbaa !4
  %15 = call ptr @load_cert_pem(ptr noundef %14, ptr noundef null)
  store ptr %15, ptr %6, align 8, !tbaa !11
  call void @llvm.lifetime.start.p0(i64 8, ptr %7) #5
  %16 = load ptr, ptr @sroot_cert, align 8, !tbaa !4
  %17 = call ptr @load_cert_pem(ptr noundef %16, ptr noundef null)
  store ptr %17, ptr %7, align 8, !tbaa !11
  call void @llvm.lifetime.start.p0(i64 8, ptr %8) #5
  %18 = call ptr @OPENSSL_sk_new_null()
  store ptr %18, ptr %8, align 8, !tbaa !13
  call void @llvm.lifetime.start.p0(i64 8, ptr %9) #5
  %19 = call ptr @OPENSSL_sk_new_null()
  store ptr %19, ptr %9, align 8, !tbaa !13
  call void @llvm.lifetime.start.p0(i64 8, ptr %10) #5
  %20 = call ptr @X509_STORE_CTX_new()
  store ptr %20, ptr %10, align 8, !tbaa !15
  call void @llvm.lifetime.start.p0(i64 4, ptr %11) #5
  store i32 0, ptr %11, align 4, !tbaa !9
  %21 = load ptr, ptr %5, align 8, !tbaa !11
  %22 = call i32 @test_ptr(ptr noundef @.str.14, i32 noundef 235, ptr noundef @.str.54, ptr noundef %21)
  %23 = icmp ne i32 %22, 0
  br i1 %23, label %24, label %44

24:                                               ; preds = %2
  %25 = load ptr, ptr %6, align 8, !tbaa !11
  %26 = call i32 @test_ptr(ptr noundef @.str.14, i32 noundef 236, ptr noundef @.str.55, ptr noundef %25)
  %27 = icmp ne i32 %26, 0
  br i1 %27, label %28, label %44

28:                                               ; preds = %24
  %29 = load ptr, ptr %7, align 8, !tbaa !11
  %30 = call i32 @test_ptr(ptr noundef @.str.14, i32 noundef 237, ptr noundef @.str.56, ptr noundef %29)
  %31 = icmp ne i32 %30, 0
  br i1 %31, label %32, label %44

32:                                               ; preds = %28
  %33 = load ptr, ptr %8, align 8, !tbaa !13
  %34 = call i32 @test_ptr(ptr noundef @.str.14, i32 noundef 238, ptr noundef @.str.57, ptr noundef %33)
  %35 = icmp ne i32 %34, 0
  br i1 %35, label %36, label %44

36:                                               ; preds = %32
  %37 = load ptr, ptr %9, align 8, !tbaa !13
  %38 = call i32 @test_ptr(ptr noundef @.str.14, i32 noundef 239, ptr noundef @.str.58, ptr noundef %37)
  %39 = icmp ne i32 %38, 0
  br i1 %39, label %40, label %44

40:                                               ; preds = %36
  %41 = load ptr, ptr %10, align 8, !tbaa !15
  %42 = call i32 @test_ptr(ptr noundef @.str.14, i32 noundef 240, ptr noundef @.str.59, ptr noundef %41)
  %43 = icmp ne i32 %42, 0
  br i1 %43, label %45, label %44

44:                                               ; preds = %40, %36, %32, %28, %24, %2
  br label %96

45:                                               ; preds = %40
  %46 = load ptr, ptr %8, align 8, !tbaa !13
  %47 = call ptr @ossl_check_X509_sk_type(ptr noundef %46)
  %48 = load ptr, ptr %7, align 8, !tbaa !11
  %49 = call ptr @ossl_check_X509_type(ptr noundef %48)
  %50 = call i32 @OPENSSL_sk_push(ptr noundef %47, ptr noundef %49)
  %51 = icmp ne i32 %50, 0
  %52 = zext i1 %51 to i32
  %53 = call i32 @test_true(ptr noundef @.str.14, i32 noundef 244, ptr noundef @.str.60, i32 noundef %52)
  %54 = icmp ne i32 %53, 0
  br i1 %54, label %56, label %55

55:                                               ; preds = %45
  br label %96

56:                                               ; preds = %45
  store ptr null, ptr %7, align 8, !tbaa !11
  %57 = load ptr, ptr %9, align 8, !tbaa !13
  %58 = call ptr @ossl_check_X509_sk_type(ptr noundef %57)
  %59 = load ptr, ptr %6, align 8, !tbaa !11
  %60 = call ptr @ossl_check_X509_type(ptr noundef %59)
  %61 = call i32 @OPENSSL_sk_push(ptr noundef %58, ptr noundef %60)
  %62 = icmp ne i32 %61, 0
  %63 = zext i1 %62 to i32
  %64 = call i32 @test_true(ptr noundef @.str.14, i32 noundef 247, ptr noundef @.str.61, i32 noundef %63)
  %65 = icmp ne i32 %64, 0
  br i1 %65, label %67, label %66

66:                                               ; preds = %56
  br label %96

67:                                               ; preds = %56
  store ptr null, ptr %6, align 8, !tbaa !11
  %68 = load ptr, ptr %10, align 8, !tbaa !15
  %69 = load ptr, ptr %5, align 8, !tbaa !11
  %70 = load ptr, ptr %9, align 8, !tbaa !13
  %71 = call i32 @X509_STORE_CTX_init(ptr noundef %68, ptr noundef null, ptr noundef %69, ptr noundef %70)
  %72 = icmp ne i32 %71, 0
  %73 = zext i1 %72 to i32
  %74 = call i32 @test_true(ptr noundef @.str.14, i32 noundef 251, ptr noundef @.str.62, i32 noundef %73)
  %75 = icmp ne i32 %74, 0
  br i1 %75, label %77, label %76

76:                                               ; preds = %67
  br label %96

77:                                               ; preds = %67
  %78 = load ptr, ptr %10, align 8, !tbaa !15
  %79 = load i32, ptr %3, align 4, !tbaa !9
  %80 = call i32 @X509_STORE_CTX_set_purpose(ptr noundef %78, i32 noundef %79)
  %81 = icmp ne i32 %80, 0
  %82 = zext i1 %81 to i32
  %83 = call i32 @test_true(ptr noundef @.str.14, i32 noundef 254, ptr noundef @.str.63, i32 noundef %82)
  %84 = icmp ne i32 %83, 0
  br i1 %84, label %86, label %85

85:                                               ; preds = %77
  br label %96

86:                                               ; preds = %77
  %87 = load ptr, ptr %10, align 8, !tbaa !15
  %88 = load ptr, ptr %8, align 8, !tbaa !13
  call void @X509_STORE_CTX_set0_trusted_stack(ptr noundef %87, ptr noundef %88)
  %89 = load ptr, ptr %10, align 8, !tbaa !15
  %90 = call i32 @X509_verify_cert(ptr noundef %89)
  %91 = load i32, ptr %4, align 4, !tbaa !9
  %92 = call i32 @test_int_eq(ptr noundef @.str.14, i32 noundef 264, ptr noundef @.str.47, ptr noundef @.str.44, i32 noundef %90, i32 noundef %91)
  %93 = icmp ne i32 %92, 0
  br i1 %93, label %95, label %94

94:                                               ; preds = %86
  br label %96

95:                                               ; preds = %86
  store i32 1, ptr %11, align 4, !tbaa !9
  br label %96

96:                                               ; preds = %95, %94, %85, %76, %66, %55, %44
  %97 = load ptr, ptr %8, align 8, !tbaa !13
  call void @OSSL_STACK_OF_X509_free(ptr noundef %97)
  %98 = load ptr, ptr %9, align 8, !tbaa !13
  call void @OSSL_STACK_OF_X509_free(ptr noundef %98)
  %99 = load ptr, ptr %10, align 8, !tbaa !15
  call void @X509_STORE_CTX_free(ptr noundef %99)
  %100 = load ptr, ptr %5, align 8, !tbaa !11
  call void @X509_free(ptr noundef %100)
  %101 = load ptr, ptr %6, align 8, !tbaa !11
  call void @X509_free(ptr noundef %101)
  %102 = load ptr, ptr %7, align 8, !tbaa !11
  call void @X509_free(ptr noundef %102)
  %103 = load i32, ptr %11, align 4, !tbaa !9
  call void @llvm.lifetime.end.p0(i64 4, ptr %11) #5
  call void @llvm.lifetime.end.p0(i64 8, ptr %10) #5
  call void @llvm.lifetime.end.p0(i64 8, ptr %9) #5
  call void @llvm.lifetime.end.p0(i64 8, ptr %8) #5
  call void @llvm.lifetime.end.p0(i64 8, ptr %7) #5
  call void @llvm.lifetime.end.p0(i64 8, ptr %6) #5
  call void @llvm.lifetime.end.p0(i64 8, ptr %5) #5
  ret i32 %103
}