; Function Attrs: nounwind uwtable
define internal fastcc range(i32 0, 2) i32 @do_test_purpose(i32 noundef range(i32 1, 8) %0, i32 noundef range(i32 0, 2) %1) unnamed_addr #1 {
  %3 = load ptr, ptr @ee_cert, align 8, !tbaa !4
  %4 = tail call ptr @load_cert_pem(ptr noundef %3, ptr noundef null) #3
  %5 = load ptr, ptr @ca_cert, align 8, !tbaa !4
  %6 = tail call ptr @load_cert_pem(ptr noundef %5, ptr noundef null) #3
  %7 = load ptr, ptr @sroot_cert, align 8, !tbaa !4
  %8 = tail call ptr @load_cert_pem(ptr noundef %7, ptr noundef null) #3
  %9 = tail call ptr @OPENSSL_sk_new_null() #3
  %10 = tail call ptr @OPENSSL_sk_new_null() #3
  %11 = tail call ptr @X509_STORE_CTX_new() #3
  %12 = tail call i32 @test_ptr(ptr noundef nonnull @.str.14, i32 noundef 235, ptr noundef nonnull @.str.54, ptr noundef %4) #3
  %.not = icmp eq i32 %12, 0
  br i1 %.not, label %46, label %13

13:                                               ; preds = %2
  %14 = tail call i32 @test_ptr(ptr noundef nonnull @.str.14, i32 noundef 236, ptr noundef nonnull @.str.55, ptr noundef %6) #3
  %.not27 = icmp eq i32 %14, 0
  br i1 %.not27, label %46, label %15

15:                                               ; preds = %13
  %16 = tail call i32 @test_ptr(ptr noundef nonnull @.str.14, i32 noundef 237, ptr noundef nonnull @.str.56, ptr noundef %8) #3
  %.not28 = icmp eq i32 %16, 0
  br i1 %.not28, label %46, label %17

17:                                               ; preds = %15
  %18 = tail call i32 @test_ptr(ptr noundef nonnull @.str.14, i32 noundef 238, ptr noundef nonnull @.str.57, ptr noundef %9) #3
  %.not29 = icmp eq i32 %18, 0
  br i1 %.not29, label %46, label %19

19:                                               ; preds = %17
  %20 = tail call i32 @test_ptr(ptr noundef nonnull @.str.14, i32 noundef 239, ptr noundef nonnull @.str.58, ptr noundef %10) #3
  %.not30 = icmp eq i32 %20, 0
  br i1 %.not30, label %46, label %21

21:                                               ; preds = %19
  %22 = tail call i32 @test_ptr(ptr noundef nonnull @.str.14, i32 noundef 240, ptr noundef nonnull @.str.59, ptr noundef %11) #3
  %.not31 = icmp eq i32 %22, 0
  br i1 %.not31, label %46, label %23

23:                                               ; preds = %21
  %24 = tail call i32 @OPENSSL_sk_push(ptr noundef %9, ptr noundef %8) #3
  %25 = icmp ne i32 %24, 0
  %26 = zext i1 %25 to i32
  %27 = tail call i32 @test_true(ptr noundef nonnull @.str.14, i32 noundef 244, ptr noundef nonnull @.str.60, i32 noundef %26) #3
  %.not32 = icmp eq i32 %27, 0
  br i1 %.not32, label %46, label %28

28:                                               ; preds = %23
  %29 = tail call i32 @OPENSSL_sk_push(ptr noundef %10, ptr noundef %6) #3
  %30 = icmp ne i32 %29, 0
  %31 = zext i1 %30 to i32
  %32 = tail call i32 @test_true(ptr noundef nonnull @.str.14, i32 noundef 247, ptr noundef nonnull @.str.61, i32 noundef %31) #3
  %.not33 = icmp eq i32 %32, 0
  br i1 %.not33, label %46, label %33

33:                                               ; preds = %28
  %34 = tail call i32 @X509_STORE_CTX_init(ptr noundef %11, ptr noundef null, ptr noundef %4, ptr noundef %10) #3
  %35 = icmp ne i32 %34, 0
  %36 = zext i1 %35 to i32
  %37 = tail call i32 @test_true(ptr noundef nonnull @.str.14, i32 noundef 251, ptr noundef nonnull @.str.62, i32 noundef %36) #3
  %.not34 = icmp eq i32 %37, 0
  br i1 %.not34, label %46, label %38

38:                                               ; preds = %33
  %39 = tail call i32 @X509_STORE_CTX_set_purpose(ptr noundef %11, i32 noundef %0) #3
  %40 = icmp ne i32 %39, 0
  %41 = zext i1 %40 to i32
  %42 = tail call i32 @test_true(ptr noundef nonnull @.str.14, i32 noundef 254, ptr noundef nonnull @.str.63, i32 noundef %41) #3
  %.not35 = icmp eq i32 %42, 0
  br i1 %.not35, label %46, label %43

43:                                               ; preds = %38
  tail call void @X509_STORE_CTX_set0_trusted_stack(ptr noundef %11, ptr noundef %9) #3
  %44 = tail call i32 @X509_verify_cert(ptr noundef %11) #3
  %45 = tail call i32 @test_int_eq(ptr noundef nonnull @.str.14, i32 noundef 264, ptr noundef nonnull @.str.47, ptr noundef nonnull @.str.44, i32 noundef %44, i32 noundef %1) #3
  %.not36 = icmp ne i32 %45, 0
  %spec.select = zext i1 %.not36 to i32
  br label %46

46:                                               ; preds = %43, %38, %33, %28, %23, %2, %13, %15, %17, %19, %21
  %.026 = phi ptr [ null, %38 ], [ null, %33 ], [ null, %28 ], [ %8, %23 ], [ %8, %21 ], [ %8, %19 ], [ %8, %17 ], [ %8, %15 ], [ %8, %13 ], [ %8, %2 ], [ null, %43 ]
  %.025 = phi ptr [ null, %38 ], [ null, %33 ], [ %6, %28 ], [ %6, %23 ], [ %6, %21 ], [ %6, %19 ], [ %6, %17 ], [ %6, %15 ], [ %6, %13 ], [ %6, %2 ], [ null, %43 ]
  %.0 = phi i32 [ 0, %38 ], [ 0, %33 ], [ 0, %28 ], [ 0, %23 ], [ 0, %21 ], [ 0, %19 ], [ 0, %17 ], [ 0, %15 ], [ 0, %13 ], [ 0, %2 ], [ %spec.select, %43 ]
  tail call void @OSSL_STACK_OF_X509_free(ptr noundef %9) #3
  tail call void @OSSL_STACK_OF_X509_free(ptr noundef %10) #3
  tail call void @X509_STORE_CTX_free(ptr noundef %11) #3
  tail call void @X509_free(ptr noundef %4) #3
  tail call void @X509_free(ptr noundef %.025) #3
  tail call void @X509_free(ptr noundef %.026) #3
  ret i32 %.0
}